; Function Attrs: mustprogress nounwind uwtable
define internal fastcc void @_ZN3nix4SyncIZNS_5Store15queryValidPathsERKSt3setINS_9StorePathESt4lessIS3_ESaIS3_EENS_14SubstituteFlagEE5StateSt5mutexED2Ev(ptr noundef nonnull align 8 dereferenceable(104) %0) unnamed_addr #6 align 2 personality ptr @__gxx_personality_v0 {
  %2 = getelementptr inbounds i8, ptr %0, i64 96
  %3 = load ptr, ptr %2, align 8
  %.not.i.i = icmp eq ptr %3, null
  br i1 %.not.i.i, label %_ZNSt15__exception_ptr13exception_ptrD2Ev.exit.i, label %4

4:                                                ; preds = %1
  tail call void @_ZNSt15__exception_ptr13exception_ptr10_M_releaseEv(ptr noundef nonnull align 8 dereferenceable(8) %2) #31
  br label %_ZNSt15__exception_ptr13exception_ptrD2Ev.exit.i

_ZNSt15__exception_ptr13exception_ptrD2Ev.exit.i: ; preds = %4, %1
  %5 = getelementptr inbounds i8, ptr %0, i64 48
  %6 = getelementptr inbounds i8, ptr %0, i64 64
  %7 = load ptr, ptr %6, align 8
  invoke void @_ZNSt8_Rb_treeIN3nix9StorePathES1_St9_IdentityIS1_ESt4lessIS1_ESaIS1_EE8_M_eraseEPSt13_Rb_tree_nodeIS1_E(ptr noundef nonnull align 8 dereferenceable(48) %5, ptr noundef %7)
          to label %_ZZN3nix5Store15queryValidPathsERKSt3setINS_9StorePathESt4lessIS2_ESaIS2_EENS_14SubstituteFlagEEN5StateD2Ev.exit unwind label %8

8:                                                ; preds = %_ZNSt15__exception_ptr13exception_ptrD2Ev.exit.i
  %9 = landingpad { ptr, i32 }
          catch ptr null
  %10 = extractvalue { ptr, i32 } %9, 0
  tail call void @__clang_call_terminate(ptr %10) #36
  unreachable

_ZZN3nix5Store15queryValidPathsERKSt3setINS_9StorePathESt4lessIS2_ESaIS2_EENS_14SubstituteFlagEEN5StateD2Ev.exit: ; preds = %_ZNSt15__exception_ptr13exception_ptrD2Ev.exit.i
  ret void
}